target datalayout = "e-m:e-p270:32:32-p271:32:32-p272:64:64-i64:64-i128:128-f80:128-n8:16:32:64-S128"
target triple = "x86_64-pc-linux-gnu"

%struct.strbuf = type { i64, i64, ptr }
%struct.string_list_item = type { ptr, ptr }

@stderr = external global ptr, align 8
@.str.166 = private unnamed_addr constant [1 x i8] zeroinitializer, align 1
@git_gettext_enabled = external global i32, align 4
@.str.173 = private unnamed_addr constant [3 x i8] c"%s\00", align 1
@__const.add_one_reference.err = private unnamed_addr constant %struct.strbuf { i64 0, i64 0, ptr @strbuf_slopbuf }, align 8
@.str.182 = private unnamed_addr constant [44 x i8] c"info: Could not add alternate for '%s': %s\0A\00", align 1
@__const.add_one_reference.sb = private unnamed_addr constant %struct.strbuf { i64 0, i64 0, ptr @strbuf_slopbuf }, align 8
@.str.183 = private unnamed_addr constant [11 x i8] c"%s/objects\00", align 1

; Function Attrs: inlinehint nounwind uwtable
define internal ptr @_(ptr noundef %0) #4 {
  %2 = alloca ptr, align 8
  %3 = alloca ptr, align 8
  store ptr %0, ptr %3, align 8, !tbaa !11
  %4 = load ptr, ptr %3, align 8, !tbaa !11
  %5 = load i8, ptr %4, align 1, !tbaa !83
  %6 = icmp ne i8 %5, 0
  br i1 %6, label %8, label %7

7:                                                ; preds = %1
  store ptr @.str.166, ptr %2, align 8
  br label %16

8:                                                ; preds = %1
  %9 = load i32, ptr @git_gettext_enabled, align 4, !tbaa !4
  %10 = icmp ne i32 %9, 0
  br i1 %10, label %13, label %11

11:                                               ; preds = %8
  %12 = load ptr, ptr %3, align 8, !tbaa !11
  store ptr %12, ptr %2, align 8
  br label %16

13:                                               ; preds = %8
  %14 = load ptr, ptr %3, align 8, !tbaa !11
  %15 = call ptr @dcgettext(ptr noundef null, ptr noundef %14, i32 noundef 5) #13
  store ptr %15, ptr %2, align 8
  br label %16

16:                                               ; preds = %13, %11, %7
  %17 = load ptr, ptr %2, align 8
  ret ptr %17
}

; Function Attrs: nounwind uwtable
define internal i32 @add_one_reference(ptr noundef %0, ptr noundef %1) #0 {
  %3 = alloca ptr, align 8
  %4 = alloca ptr, align 8
  %5 = alloca %struct.strbuf, align 8
  %6 = alloca ptr, align 8
  %7 = alloca ptr, align 8
  %8 = alloca %struct.strbuf, align 8
  store ptr %0, ptr %3, align 8, !tbaa !26
  store ptr %1, ptr %4, align 8, !tbaa !80
  call void @llvm.lifetime.start.p0(i64 24, ptr %5) #13
  call void @llvm.memcpy.p0.p0.i64(ptr align 8 %5, ptr align 8 @__const.add_one_reference.err, i64 24, i1 false)
  call void @llvm.lifetime.start.p0(i64 8, ptr %6) #13
  %9 = load ptr, ptr %4, align 8, !tbaa !80
  store ptr %9, ptr %6, align 8, !tbaa !84
  call void @llvm.lifetime.start.p0(i64 8, ptr %7) #13
  %10 = load ptr, ptr %3, align 8, !tbaa !26
  %11 = getelementptr inbounds nuw %struct.string_list_item, ptr %10, i32 0, i32 0
  %12 = load ptr, ptr %11, align 8, !tbaa !27
  %13 = call ptr @compute_alternate_path(ptr noundef %12, ptr noundef %5)
  store ptr %13, ptr %7, align 8, !tbaa !11
  %14 = load ptr, ptr %7, align 8, !tbaa !11
  %15 = icmp ne ptr %14, null
  br i1 %15, label %33, label %16

16:                                               ; preds = %2
  %17 = load ptr, ptr %6, align 8, !tbaa !84
  %18 = load i32, ptr %17, align 4, !tbaa !4
  %19 = icmp ne i32 %18, 0
  br i1 %19, label %20, label %23

20:                                               ; preds = %16
  %21 = getelementptr inbounds nuw %struct.strbuf, ptr %5, i32 0, i32 2
  %22 = load ptr, ptr %21, align 8, !tbaa !49
  call void (ptr, ...) @die(ptr noundef @.str.173, ptr noundef %22) #14
  unreachable

23:                                               ; preds = %16
  %24 = load ptr, ptr @stderr, align 8, !tbaa !23
  %25 = call ptr @_(ptr noundef @.str.182)
  %26 = load ptr, ptr %3, align 8, !tbaa !26
  %27 = getelementptr inbounds nuw %struct.string_list_item, ptr %26, i32 0, i32 0
  %28 = load ptr, ptr %27, align 8, !tbaa !27
  %29 = getelementptr inbounds nuw %struct.strbuf, ptr %5, i32 0, i32 2
  %30 = load ptr, ptr %29, align 8, !tbaa !49
  %31 = call i32 (ptr, ptr, ...) @fprintf(ptr noundef %24, ptr noundef %25, ptr noundef %28, ptr noundef %30) #13
  br label %32

32:                                               ; preds = %23
  br label %37

33:                                               ; preds = %2
  call void @llvm.lifetime.start.p0(i64 24, ptr %8) #13
  call void @llvm.memcpy.p0.p0.i64(ptr align 8 %8, ptr align 8 @__const.add_one_reference.sb, i64 24, i1 false)
  %34 = load ptr, ptr %7, align 8, !tbaa !11
  call void (ptr, ptr, ...) @strbuf_addf(ptr noundef %8, ptr noundef @.str.183, ptr noundef %34)
  %35 = getelementptr inbounds nuw %struct.strbuf, ptr %8, i32 0, i32 2
  %36 = load ptr, ptr %35, align 8, !tbaa !49
  call void @add_to_alternates_file(ptr noundef %36)
  call void @strbuf_release(ptr noundef %8)
  call void @llvm.lifetime.end.p0(i64 24, ptr %8) #13
  br label %37

37:                                               ; preds = %33, %32
  call void @strbuf_release(ptr noundef %5)
  %38 = load ptr, ptr %7, align 8, !tbaa !11
  call void @free(ptr noundef %38) #13
  call void @llvm.lifetime.end.p0(i64 8, ptr %7) #13
  call void @llvm.lifetime.end.p0(i64 8, ptr %6) #13
  call void @llvm.lifetime.end.p0(i64 24, ptr %5) #13
  ret i32 0
}