; Function Attrs: nounwind uwtable
define internal noundef i32 @add_one_reference(ptr noundef readonly captures(none) %0, ptr noundef readonly captures(none) %1) #0 {
  %3 = alloca %struct.strbuf, align 8
  %4 = alloca %struct.strbuf, align 8
  call void @llvm.lifetime.start.p0(i64 24, ptr nonnull %3) #20
  call void @llvm.memcpy.p0.p0.i64(ptr noundef nonnull align 8 dereferenceable(24) %3, ptr noundef nonnull align 8 dereferenceable(24) @__const.git_pathdup.path, i64 24, i1 false)
  %5 = load ptr, ptr %0, align 8, !tbaa !20
  %6 = call ptr @compute_alternate_path(ptr noundef %5, ptr noundef nonnull %3) #20
  %.not = icmp eq ptr %6, null
  br i1 %.not, label %7, label %21

7:                                                ; preds = %2
  %8 = load i32, ptr %1, align 4, !tbaa !4
  %.not7 = icmp eq i32 %8, 0
  br i1 %.not7, label %12, label %9

9:                                                ; preds = %7
  %10 = getelementptr inbounds nuw i8, ptr %3, i64 16
  %11 = load ptr, ptr %10, align 8, !tbaa !40
  call void (ptr, ...) @die(ptr noundef nonnull @.str.173, ptr noundef %11) #21
  unreachable

12:                                               ; preds = %7
  %13 = load ptr, ptr @stderr, align 8, !tbaa !13
  %14 = load i32, ptr @git_gettext_enabled, align 4, !tbaa !4
  %.not4.i = icmp eq i32 %14, 0
  br i1 %.not4.i, label %_.exit, label %15

15:                                               ; preds = %12
  %16 = call ptr @dcgettext(ptr noundef null, ptr noundef nonnull @.str.182, i32 noundef 5) #20
  br label %_.exit

_.exit:                                           ; preds = %12, %15
  %.0.i = phi ptr [ %16, %15 ], [ @.str.182, %12 ]
  %17 = load ptr, ptr %0, align 8, !tbaa !20
  %18 = getelementptr inbounds nuw i8, ptr %3, i64 16
  %19 = load ptr, ptr %18, align 8, !tbaa !40
  %20 = call i32 (ptr, ptr, ...) @fprintf(ptr noundef %13, ptr noundef %.0.i, ptr noundef %17, ptr noundef %19) #23
  br label %24

21:                                               ; preds = %2
  call void @llvm.lifetime.start.p0(i64 24, ptr nonnull %4) #20
  call void @llvm.memcpy.p0.p0.i64(ptr noundef nonnull align 8 dereferenceable(24) %4, ptr noundef nonnull align 8 dereferenceable(24) @__const.git_pathdup.path, i64 24, i1 false)
  call void (ptr, ptr, ...) @strbuf_addf(ptr noundef nonnull %4, ptr noundef nonnull @.str.183, ptr noundef nonnull %6) #20
  %22 = getelementptr inbounds nuw i8, ptr %4, i64 16
  %23 = load ptr, ptr %22, align 8, !tbaa !40
  call void @add_to_alternates_file(ptr noundef %23) #20
  call void @strbuf_release(ptr noundef nonnull %4) #20
  call void @llvm.lifetime.end.p0(i64 24, ptr nonnull %4) #20
  br label %24

24:                                               ; preds = %21, %_.exit
  call void @strbuf_release(ptr noundef nonnull %3) #20
  call void @free(ptr noundef %6) #20
  call void @llvm.lifetime.end.p0(i64 24, ptr nonnull %3) #20
  ret i32 0
}